target datalayout = "e-m:e-p270:32:32-p271:32:32-p272:64:64-i64:64-i128:128-f80:128-n8:16:32:64-S128"
target triple = "x86_64-pc-linux-gnu"

%union.YYSTYPE = type { ptr }
%"struct.gmx::SelectionLocation" = type { i32, i32 }
%struct._gmx_sel_yypstate = type { i32, i32, i32, [200 x i16], ptr, ptr, [200 x %union.YYSTYPE], ptr, ptr, [200 x %"struct.gmx::SelectionLocation"], ptr, ptr, [3 x %"struct.gmx::SelectionLocation"], i64, i32 }

; Function Attrs: mustprogress nounwind uwtable
define noundef ptr @_Z21_gmx_sel_yypstate_newv() #0 {
  %1 = alloca ptr, align 8
  %2 = alloca ptr, align 8
  %3 = call noalias ptr @malloc(i64 noundef 3704) #13
  store ptr %3, ptr %2, align 8
  %4 = load ptr, ptr %2, align 8
  %5 = icmp ne ptr %4, null
  br i1 %5, label %7, label %6

6:                                                ; preds = %0
  store ptr null, ptr %1, align 8
  br label %11

7:                                                ; preds = %0
  %8 = load ptr, ptr %2, align 8
  %9 = getelementptr inbounds %struct._gmx_sel_yypstate, ptr %8, i32 0, i32 14
  store i32 1, ptr %9, align 8
  %10 = load ptr, ptr %2, align 8
  store ptr %10, ptr %1, align 8
  br label %11

11:                                               ; preds = %7, %6
  %12 = load ptr, ptr %1, align 8
  ret ptr %12
}