; Function Attrs: mustprogress nofree nounwind willreturn memory(write, argmem: none, inaccessiblemem: readwrite) uwtable
define noalias noundef ptr @_Z21_gmx_sel_yypstate_newv() local_unnamed_addr #0 {
  %1 = tail call noalias dereferenceable_or_null(3704) ptr @malloc(i64 noundef 3704) #20
  %.not = icmp eq ptr %1, null
  br i1 %.not, label %4, label %2

2:                                                ; preds = %0
  %3 = getelementptr inbounds i8, ptr %1, i64 3696
  store i32 1, ptr %3, align 8
  br label %4

4:                                                ; preds = %0, %2
  ret ptr %1
}